; Function Attrs: mustprogress nounwind uwtable
define void @_ZN4YAML6detail9node_data9reset_mapEv(ptr noundef nonnull align 8 dereferenceable(176) %this) local_unnamed_addr #0 align 2 personality ptr @__gxx_personality_v0 {
entry:
  %m_map = getelementptr inbounds i8, ptr %this, i64 128
  %0 = load ptr, ptr %m_map, align 8
  %_M_finish.i.i = getelementptr inbounds i8, ptr %this, i64 136
  %1 = load ptr, ptr %_M_finish.i.i, align 8
  %tobool.not.i.i = icmp eq ptr %1, %0
  br i1 %tobool.not.i.i, label %_ZNSt6vectorISt4pairIPN4YAML6detail4nodeES4_ESaIS5_EE5clearEv.exit, label %invoke.cont.i.i

invoke.cont.i.i:                                  ; preds = %entry
  store ptr %0, ptr %_M_finish.i.i, align 8
  br label %_ZNSt6vectorISt4pairIPN4YAML6detail4nodeES4_ESaIS5_EE5clearEv.exit

_ZNSt6vectorISt4pairIPN4YAML6detail4nodeES4_ESaIS5_EE5clearEv.exit: ; preds = %entry, %invoke.cont.i.i
  %m_undefinedPairs = getelementptr inbounds i8, ptr %this, i64 152
  %2 = load ptr, ptr %m_undefinedPairs, align 8
  %cmp.not4.i.i = icmp eq ptr %2, %m_undefinedPairs
  br i1 %cmp.not4.i.i, label %_ZNSt7__cxx114listISt4pairIPN4YAML6detail4nodeES5_ESaIS6_EE5clearEv.exit, label %while.body.i.i

while.body.i.i:                                   ; preds = %_ZNSt6vectorISt4pairIPN4YAML6detail4nodeES4_ESaIS5_EE5clearEv.exit, %while.body.i.i
  %__cur.05.i.i = phi ptr [ %3, %while.body.i.i ], [ %2, %_ZNSt6vectorISt4pairIPN4YAML6detail4nodeES4_ESaIS5_EE5clearEv.exit ]
  %3 = load ptr, ptr %__cur.05.i.i, align 8
  tail call void @_ZdlPv(ptr noundef %__cur.05.i.i) #19
  %cmp.not.i.i = icmp eq ptr %3, %m_undefinedPairs
  br i1 %cmp.not.i.i, label %_ZNSt7__cxx114listISt4pairIPN4YAML6detail4nodeES5_ESaIS6_EE5clearEv.exit, label %while.body.i.i, !llvm.loop !5

_ZNSt7__cxx114listISt4pairIPN4YAML6detail4nodeES5_ESaIS6_EE5clearEv.exit: ; preds = %while.body.i.i, %_ZNSt6vectorISt4pairIPN4YAML6detail4nodeES4_ESaIS5_EE5clearEv.exit
  %_M_prev.i.i.i = getelementptr inbounds i8, ptr %this, i64 160
  store ptr %m_undefinedPairs, ptr %_M_prev.i.i.i, align 8
  store ptr %m_undefinedPairs, ptr %m_undefinedPairs, align 8
  %_M_size.i.i.i = getelementptr inbounds i8, ptr %this, i64 168
  store i64 0, ptr %_M_size.i.i.i, align 8
  ret void
}